target datalayout = "e-m:e-p270:32:32-p271:32:32-p272:64:64-i64:64-i128:128-f80:128-n8:16:32:64-S128"
target triple = "x86_64-pc-linux-gnu"

@.str.26 = private unnamed_addr constant [5 x i8] c"auto\00", align 1

; Function Attrs: nounwind uwtable
define internal void @SDL_EnhancedReportsChanged(ptr noundef %0, ptr noundef %1, ptr noundef %2, ptr noundef %3) #0 {
  %5 = alloca ptr, align 8
  %6 = alloca ptr, align 8
  %7 = alloca ptr, align 8
  %8 = alloca ptr, align 8
  %9 = alloca ptr, align 8
  store ptr %0, ptr %5, align 8
  store ptr %1, ptr %6, align 8
  store ptr %2, ptr %7, align 8
  store ptr %3, ptr %8, align 8
  call void @llvm.lifetime.start.p0(i64 8, ptr %9) #6
  %10 = load ptr, ptr %5, align 8
  store ptr %10, ptr %9, align 8
  %11 = load ptr, ptr %8, align 8
  %12 = icmp ne ptr %11, null
  br i1 %12, label %13, label %19

13:                                               ; preds = %4
  %14 = load ptr, ptr %8, align 8
  %15 = call i32 @SDL_strcasecmp_REAL(ptr noundef %14, ptr noundef @.str.26)
  %16 = icmp eq i32 %15, 0
  br i1 %16, label %17, label %19

17:                                               ; preds = %13
  %18 = load ptr, ptr %9, align 8
  call void @SetEnhancedReportHint(ptr noundef %18, i32 noundef 2)
  br label %27

19:                                               ; preds = %13, %4
  %20 = load ptr, ptr %8, align 8
  %21 = call zeroext i1 @SDL_GetStringBoolean(ptr noundef %20, i1 noundef zeroext true)
  br i1 %21, label %22, label %24

22:                                               ; preds = %19
  %23 = load ptr, ptr %9, align 8
  call void @SetEnhancedReportHint(ptr noundef %23, i32 noundef 1)
  br label %26

24:                                               ; preds = %19
  %25 = load ptr, ptr %9, align 8
  call void @SetEnhancedReportHint(ptr noundef %25, i32 noundef 0)
  br label %26

26:                                               ; preds = %24, %22
  br label %27

27:                                               ; preds = %26, %17
  call void @llvm.lifetime.end.p0(i64 8, ptr %9) #6
  ret void
}