; Function Attrs: nounwind uwtable
define internal void @SDL_EnhancedReportsChanged(ptr noundef initializes((48, 52)) %0, ptr readnone captures(none) %1, ptr readnone captures(none) %2, ptr noundef %3) #0 {
  %5 = alloca i8, align 1
  %.not = icmp eq ptr %3, null
  br i1 %.not, label %10, label %6

6:                                                ; preds = %4
  %7 = tail call i32 @SDL_strcasecmp_REAL(ptr noundef nonnull %3, ptr noundef nonnull @.str.26) #9
  %8 = icmp eq i32 %7, 0
  br i1 %8, label %9, label %10

9:                                                ; preds = %6
  tail call fastcc void @SetEnhancedReportHint(ptr noundef %0, i32 noundef 2)
  br label %31

10:                                               ; preds = %6, %4
  %11 = tail call zeroext i1 @SDL_GetStringBoolean(ptr noundef %3, i1 noundef zeroext true) #9
  br i1 %11, label %12, label %13

12:                                               ; preds = %10
  tail call fastcc void @SetEnhancedReportHint(ptr noundef %0, i32 noundef 1)
  br label %31

13:                                               ; preds = %10
  %14 = getelementptr inbounds nuw i8, ptr %0, i64 48
  store i32 0, ptr %14, align 8
  %15 = getelementptr inbounds nuw i8, ptr %0, i64 52
  store i8 0, ptr %15, align 4
  %16 = getelementptr inbounds nuw i8, ptr %0, i64 153
  %17 = load i8, ptr %16, align 1, !range !3, !noundef !4
  %18 = trunc nuw i8 %17 to i1
  %19 = getelementptr i8, ptr %0, i64 36
  %.val.i.i = load i8, ptr %19, align 4
  br i1 %18, label %20, label %.thread15.i.i.i

20:                                               ; preds = %13
  switch i8 %.val.i.i, label %21 [
    i8 0, label %GetSensorInputMode.exit.i.i
    i8 63, label %GetSensorInputMode.exit.i.i
  ]

21:                                               ; preds = %20
  br label %GetSensorInputMode.exit.i.i

.thread15.i.i.i:                                  ; preds = %13
  %22 = load ptr, ptr %0, align 8
  %23 = getelementptr inbounds nuw i8, ptr %22, i64 84
  %24 = load i8, ptr %23, align 4, !range !3, !noundef !4
  %25 = trunc nuw i8 %24 to i1
  %spec.select.i.i.i = select i1 %25, i8 63, i8 48
  br label %GetSensorInputMode.exit.i.i

GetSensorInputMode.exit.i.i:                      ; preds = %.thread15.i.i.i, %21, %20, %20
  %.0.i.i = phi i8 [ %.val.i.i, %21 ], [ 48, %20 ], [ 48, %20 ], [ %spec.select.i.i.i, %.thread15.i.i.i ]
  call void @llvm.lifetime.start.p0(i64 1, ptr nonnull %5)
  store i8 %.0.i.i, ptr %5, align 1
  %26 = getelementptr inbounds nuw i8, ptr %0, i64 37
  %27 = load i8, ptr %26, align 1
  %28 = icmp eq i8 %.0.i.i, %27
  br i1 %28, label %SetEnhancedReportHint.exit, label %29

29:                                               ; preds = %GetSensorInputMode.exit.i.i
  store i8 %.0.i.i, ptr %26, align 1
  %30 = call fastcc zeroext i1 @WriteSubcommand(ptr noundef nonnull %0, i32 noundef 3, ptr noundef nonnull %5, i8 noundef zeroext 1, ptr noundef null)
  br label %SetEnhancedReportHint.exit

SetEnhancedReportHint.exit:                       ; preds = %GetSensorInputMode.exit.i.i, %29
  call void @llvm.lifetime.end.p0(i64 1, ptr nonnull %5)
  br label %31

31:                                               ; preds = %12, %SetEnhancedReportHint.exit, %9
  ret void
}